target datalayout = "e-m:e-p270:32:32-p271:32:32-p272:64:64-i64:64-i128:128-f80:128-n8:16:32:64-S128"
target triple = "x86_64-unknown-linux-gnu"

%class.btDiscreteDynamicsWorld = type <{ %class.btDynamicsWorld, %class.btAlignedObjectArray.0, ptr, ptr, ptr, %class.btAlignedObjectArray.0, %class.btAlignedObjectArray.4, %class.btVector3, float, float, i8, i8, i8, i8, [4 x i8], %class.btAlignedObjectArray.8, i32, i8, [3 x i8], %class.btAlignedObjectArray.12, %class.btSpinMutex, [4 x i8] }>
%class.btDynamicsWorld = type { %class.btCollisionWorld.base, ptr, ptr, ptr, %struct.btContactSolverInfo }
%class.btCollisionWorld.base = type <{ ptr, %class.btAlignedObjectArray, ptr, %struct.btDispatcherInfo, ptr, ptr, i8 }>
%class.btAlignedObjectArray = type <{ %class.btAlignedAllocator, [3 x i8], i32, i32, [4 x i8], ptr, i8, [7 x i8] }>
%class.btAlignedAllocator = type { i8 }
%struct.btDispatcherInfo = type <{ float, i32, i32, float, i8, [7 x i8], ptr, i8, i8, i8, i8, float, i8, [3 x i8], float, i8, [7 x i8] }>
%struct.btContactSolverInfo = type { %struct.btContactSolverInfoData }
%struct.btContactSolverInfoData = type { float, float, float, float, float, i32, float, float, float, float, float, float, float, float, float, float, i32, float, float, float, float, float, i32, i32, i32, float, float, float, float, i8, i8, i32, i32 }
%class.btAlignedObjectArray.0 = type <{ %class.btAlignedAllocator.1, [3 x i8], i32, i32, [4 x i8], ptr, i8, [7 x i8] }>
%class.btAlignedAllocator.1 = type { i8 }
%class.btAlignedObjectArray.4 = type <{ %class.btAlignedAllocator.5, [3 x i8], i32, i32, [4 x i8], ptr, i8, [7 x i8] }>
%class.btAlignedAllocator.5 = type { i8 }
%class.btVector3 = type { [4 x float] }
%class.btAlignedObjectArray.8 = type <{ %class.btAlignedAllocator.9, [3 x i8], i32, i32, [4 x i8], ptr, i8, [7 x i8] }>
%class.btAlignedAllocator.9 = type { i8 }
%class.btAlignedObjectArray.12 = type <{ %class.btAlignedAllocator.13, [3 x i8], i32, i32, [4 x i8], ptr, i8, [7 x i8] }>
%class.btAlignedAllocator.13 = type { i8 }
%class.btSpinMutex = type { i32 }
%class.btCollisionWorld = type <{ ptr, %class.btAlignedObjectArray, ptr, %struct.btDispatcherInfo, ptr, ptr, i8, [7 x i8] }>
%class.CProfileSample = type { i8 }

@.str = private unnamed_addr constant [15 x i8] c"debugDrawWorld\00", align 1

; Function Attrs: mustprogress nounwind uwtable
define linkonce_odr dso_local noundef nonnull align 8 dereferenceable(8) ptr @_ZN20btAlignedObjectArrayIP17btActionInterfaceEixEi(ptr noundef nonnull align 8 dereferenceable(25) %this, i32 noundef %n) #1 comdat align 2 {
entry:
  %this.addr = alloca ptr, align 8
  %n.addr = alloca i32, align 4
  store ptr %this, ptr %this.addr, align 8
  store i32 %n, ptr %n.addr, align 4
  %this1 = load ptr, ptr %this.addr, align 8
  %m_data = getelementptr inbounds %class.btAlignedObjectArray.8, ptr %this1, i32 0, i32 5
  %0 = load ptr, ptr %m_data, align 8
  %1 = load i32, ptr %n.addr, align 4
  %idxprom = sext i32 %1 to i64
  %arrayidx = getelementptr inbounds ptr, ptr %0, i64 %idxprom
  ret ptr %arrayidx
}

; Function Attrs: mustprogress nounwind uwtable
define linkonce_odr dso_local noundef i32 @_ZNK20btAlignedObjectArrayIP17btActionInterfaceE4sizeEv(ptr noundef nonnull align 8 dereferenceable(25) %this) #1 comdat align 2 {
entry:
  %this.addr = alloca ptr, align 8
  store ptr %this, ptr %this.addr, align 8
  %this1 = load ptr, ptr %this.addr, align 8
  %m_size = getelementptr inbounds %class.btAlignedObjectArray.8, ptr %this1, i32 0, i32 2
  %0 = load i32, ptr %m_size, align 4
  ret i32 %0
}

; Function Attrs: mustprogress uwtable
define dso_local void @_ZN23btDiscreteDynamicsWorld14debugDrawWorldEv(ptr noundef nonnull align 8 dereferenceable(508) %this) unnamed_addr #2 align 2 personality ptr @__gxx_personality_v0 {
entry:
  %this.addr = alloca ptr, align 8
  %__profile = alloca %class.CProfileSample, align 1
  %exn.slot = alloca ptr, align 8
  %ehselector.slot = alloca i32, align 4
  %drawConstraints = alloca i8, align 1
  %mode = alloca i32, align 4
  %i = alloca i32, align 4
  %constraint = alloca ptr, align 8
  %i44 = alloca i32, align 4
  store ptr %this, ptr %this.addr, align 8
  %this1 = load ptr, ptr %this.addr, align 8
  call void @_ZN14CProfileSampleC1EPKc(ptr noundef nonnull align 1 dereferenceable(1) %__profile, ptr noundef @.str)
  invoke void @_ZN16btCollisionWorld14debugDrawWorldEv(ptr noundef nonnull align 8 dereferenceable(121) %this1)
          to label %invoke.cont unwind label %lpad

invoke.cont:                                      ; preds = %entry
  store i8 0, ptr %drawConstraints, align 1
  %vtable = load ptr, ptr %this1, align 8
  %vfn = getelementptr inbounds ptr, ptr %vtable, i64 5
  %0 = load ptr, ptr %vfn, align 8
  %call = invoke noundef ptr %0(ptr noundef nonnull align 8 dereferenceable(121) %this1)
          to label %invoke.cont2 unwind label %lpad

invoke.cont2:                                     ; preds = %invoke.cont
  %tobool = icmp ne ptr %call, null
  br i1 %tobool, label %if.then, label %if.end13

if.then:                                          ; preds = %invoke.cont2
  %vtable3 = load ptr, ptr %this1, align 8
  %vfn4 = getelementptr inbounds ptr, ptr %vtable3, i64 5
  %1 = load ptr, ptr %vfn4, align 8
  %call6 = invoke noundef ptr %1(ptr noundef nonnull align 8 dereferenceable(121) %this1)
          to label %invoke.cont5 unwind label %lpad

invoke.cont5:                                     ; preds = %if.then
  %vtable7 = load ptr, ptr %call6, align 8
  %vfn8 = getelementptr inbounds ptr, ptr %vtable7, i64 14
  %2 = load ptr, ptr %vfn8, align 8
  %call10 = invoke noundef i32 %2(ptr noundef nonnull align 8 dereferenceable(8) %call6)
          to label %invoke.cont9 unwind label %lpad

invoke.cont9:                                     ; preds = %invoke.cont5
  store i32 %call10, ptr %mode, align 4
  %3 = load i32, ptr %mode, align 4
  %and = and i32 %3, 6144
  %tobool11 = icmp ne i32 %and, 0
  br i1 %tobool11, label %if.then12, label %if.end

if.then12:                                        ; preds = %invoke.cont9
  store i8 1, ptr %drawConstraints, align 1
  br label %if.end

lpad:                                             ; preds = %invoke.cont84, %if.then81, %if.end75, %invoke.cont67, %for.body65, %for.cond61, %invoke.cont53, %land.lhs.true50, %if.then43, %invoke.cont35, %land.lhs.true, %if.end27, %invoke.cont22, %for.body, %if.then15, %invoke.cont5, %if.then, %invoke.cont, %entry
  %4 = landingpad { ptr, i32 }
          cleanup
  %5 = extractvalue { ptr, i32 } %4, 0
  store ptr %5, ptr %exn.slot, align 8
  %6 = extractvalue { ptr, i32 } %4, 1
  store i32 %6, ptr %ehselector.slot, align 4
  call void @_ZN14CProfileSampleD1Ev(ptr noundef nonnull align 1 dereferenceable(1) %__profile) #12
  br label %eh.resume

if.end:                                           ; preds = %if.then12, %invoke.cont9
  br label %if.end13

if.end13:                                         ; preds = %if.end, %invoke.cont2
  %7 = load i8, ptr %drawConstraints, align 1
  %tobool14 = trunc i8 %7 to i1
  br i1 %tobool14, label %if.then15, label %if.end27

if.then15:                                        ; preds = %if.end13
  %vtable16 = load ptr, ptr %this1, align 8
  %vfn17 = getelementptr inbounds ptr, ptr %vtable16, i64 27
  %8 = load ptr, ptr %vfn17, align 8
  %call19 = invoke noundef i32 %8(ptr noundef nonnull align 8 dereferenceable(508) %this1)
          to label %invoke.cont18 unwind label %lpad

invoke.cont18:                                    ; preds = %if.then15
  %sub = sub nsw i32 %call19, 1
  store i32 %sub, ptr %i, align 4
  br label %for.cond

for.cond:                                         ; preds = %for.inc, %invoke.cont18
  %9 = load i32, ptr %i, align 4
  %cmp = icmp sge i32 %9, 0
  br i1 %cmp, label %for.body, label %for.end

for.body:                                         ; preds = %for.cond
  %10 = load i32, ptr %i, align 4
  %vtable20 = load ptr, ptr %this1, align 8
  %vfn21 = getelementptr inbounds ptr, ptr %vtable20, i64 28
  %11 = load ptr, ptr %vfn21, align 8
  %call23 = invoke noundef ptr %11(ptr noundef nonnull align 8 dereferenceable(508) %this1, i32 noundef %10)
          to label %invoke.cont22 unwind label %lpad

invoke.cont22:                                    ; preds = %for.body
  store ptr %call23, ptr %constraint, align 8
  %12 = load ptr, ptr %constraint, align 8
  %vtable24 = load ptr, ptr %this1, align 8
  %vfn25 = getelementptr inbounds ptr, ptr %vtable24, i64 44
  %13 = load ptr, ptr %vfn25, align 8
  invoke void %13(ptr noundef nonnull align 8 dereferenceable(508) %this1, ptr noundef %12)
          to label %invoke.cont26 unwind label %lpad

invoke.cont26:                                    ; preds = %invoke.cont22
  br label %for.inc

for.inc:                                          ; preds = %invoke.cont26
  %14 = load i32, ptr %i, align 4
  %dec = add nsw i32 %14, -1
  store i32 %dec, ptr %i, align 4
  br label %for.cond, !llvm.loop !7

for.end:                                          ; preds = %for.cond
  br label %if.end27

if.end27:                                         ; preds = %for.end, %if.end13
  %vtable28 = load ptr, ptr %this1, align 8
  %vfn29 = getelementptr inbounds ptr, ptr %vtable28, i64 5
  %15 = load ptr, ptr %vfn29, align 8
  %call31 = invoke noundef ptr %15(ptr noundef nonnull align 8 dereferenceable(121) %this1)
          to label %invoke.cont30 unwind label %lpad

invoke.cont30:                                    ; preds = %if.end27
  %tobool32 = icmp ne ptr %call31, null
  br i1 %tobool32, label %land.lhs.true, label %if.end75

land.lhs.true:                                    ; preds = %invoke.cont30
  %vtable33 = load ptr, ptr %this1, align 8
  %vfn34 = getelementptr inbounds ptr, ptr %vtable33, i64 5
  %16 = load ptr, ptr %vfn34, align 8
  %call36 = invoke noundef ptr %16(ptr noundef nonnull align 8 dereferenceable(121) %this1)
          to label %invoke.cont35 unwind label %lpad

invoke.cont35:                                    ; preds = %land.lhs.true
  %vtable37 = load ptr, ptr %call36, align 8
  %vfn38 = getelementptr inbounds ptr, ptr %vtable37, i64 14
  %17 = load ptr, ptr %vfn38, align 8
  %call40 = invoke noundef i32 %17(ptr noundef nonnull align 8 dereferenceable(8) %call36)
          to label %invoke.cont39 unwind label %lpad

invoke.cont39:                                    ; preds = %invoke.cont35
  %and41 = and i32 %call40, 16387
  %tobool42 = icmp ne i32 %and41, 0
  br i1 %tobool42, label %if.then43, label %if.end75

if.then43:                                        ; preds = %invoke.cont39
  %vtable45 = load ptr, ptr %this1, align 8
  %vfn46 = getelementptr inbounds ptr, ptr %vtable45, i64 5
  %18 = load ptr, ptr %vfn46, align 8
  %call48 = invoke noundef ptr %18(ptr noundef nonnull align 8 dereferenceable(121) %this1)
          to label %invoke.cont47 unwind label %lpad

invoke.cont47:                                    ; preds = %if.then43
  %tobool49 = icmp ne ptr %call48, null
  br i1 %tobool49, label %land.lhs.true50, label %if.end74

land.lhs.true50:                                  ; preds = %invoke.cont47
  %vtable51 = load ptr, ptr %this1, align 8
  %vfn52 = getelementptr inbounds ptr, ptr %vtable51, i64 5
  %19 = load ptr, ptr %vfn52, align 8
  %call54 = invoke noundef ptr %19(ptr noundef nonnull align 8 dereferenceable(121) %this1)
          to label %invoke.cont53 unwind label %lpad

invoke.cont53:                                    ; preds = %land.lhs.true50
  %vtable55 = load ptr, ptr %call54, align 8
  %vfn56 = getelementptr inbounds ptr, ptr %vtable55, i64 14
  %20 = load ptr, ptr %vfn56, align 8
  %call58 = invoke noundef i32 %20(ptr noundef nonnull align 8 dereferenceable(8) %call54)
          to label %invoke.cont57 unwind label %lpad

invoke.cont57:                                    ; preds = %invoke.cont53
  %tobool59 = icmp ne i32 %call58, 0
  br i1 %tobool59, label %if.then60, label %if.end74

if.then60:                                        ; preds = %invoke.cont57
  store i32 0, ptr %i44, align 4
  br label %for.cond61

for.cond61:                                       ; preds = %for.inc72, %if.then60
  %21 = load i32, ptr %i44, align 4
  %m_actions = getelementptr inbounds %class.btDiscreteDynamicsWorld, ptr %this1, i32 0, i32 15
  %call63 = invoke noundef i32 @_ZNK20btAlignedObjectArrayIP17btActionInterfaceE4sizeEv(ptr noundef nonnull align 8 dereferenceable(25) %m_actions)
          to label %invoke.cont62 unwind label %lpad

invoke.cont62:                                    ; preds = %for.cond61
  %cmp64 = icmp slt i32 %21, %call63
  br i1 %cmp64, label %for.body65, label %for.end73

for.body65:                                       ; preds = %invoke.cont62
  %m_actions66 = getelementptr inbounds %class.btDiscreteDynamicsWorld, ptr %this1, i32 0, i32 15
  %22 = load i32, ptr %i44, align 4
  %call68 = invoke noundef nonnull align 8 dereferenceable(8) ptr @_ZN20btAlignedObjectArrayIP17btActionInterfaceEixEi(ptr noundef nonnull align 8 dereferenceable(25) %m_actions66, i32 noundef %22)
          to label %invoke.cont67 unwind label %lpad

invoke.cont67:                                    ; preds = %for.body65
  %23 = load ptr, ptr %call68, align 8
  %m_debugDrawer = getelementptr inbounds %class.btCollisionWorld, ptr %this1, i32 0, i32 5
  %24 = load ptr, ptr %m_debugDrawer, align 8
  %vtable69 = load ptr, ptr %23, align 8
  %vfn70 = getelementptr inbounds ptr, ptr %vtable69, i64 3
  %25 = load ptr, ptr %vfn70, align 8
  invoke void %25(ptr noundef nonnull align 8 dereferenceable(8) %23, ptr noundef %24)
          to label %invoke.cont71 unwind label %lpad

invoke.cont71:                                    ; preds = %invoke.cont67
  br label %for.inc72

for.inc72:                                        ; preds = %invoke.cont71
  %26 = load i32, ptr %i44, align 4
  %inc = add nsw i32 %26, 1
  store i32 %inc, ptr %i44, align 4
  br label %for.cond61, !llvm.loop !8

for.end73:                                        ; preds = %invoke.cont62
  br label %if.end74

if.end74:                                         ; preds = %for.end73, %invoke.cont57, %invoke.cont47
  br label %if.end75

if.end75:                                         ; preds = %if.end74, %invoke.cont39, %invoke.cont30
  %vtable76 = load ptr, ptr %this1, align 8
  %vfn77 = getelementptr inbounds ptr, ptr %vtable76, i64 5
  %27 = load ptr, ptr %vfn77, align 8
  %call79 = invoke noundef ptr %27(ptr noundef nonnull align 8 dereferenceable(121) %this1)
          to label %invoke.cont78 unwind label %lpad

invoke.cont78:                                    ; preds = %if.end75
  %tobool80 = icmp ne ptr %call79, null
  br i1 %tobool80, label %if.then81, label %if.end89

if.then81:                                        ; preds = %invoke.cont78
  %vtable82 = load ptr, ptr %this1, align 8
  %vfn83 = getelementptr inbounds ptr, ptr %vtable82, i64 5
  %28 = load ptr, ptr %vfn83, align 8
  %call85 = invoke noundef ptr %28(ptr noundef nonnull align 8 dereferenceable(121) %this1)
          to label %invoke.cont84 unwind label %lpad

invoke.cont84:                                    ; preds = %if.then81
  %vtable86 = load ptr, ptr %call85, align 8
  %vfn87 = getelementptr inbounds ptr, ptr %vtable86, i64 26
  %29 = load ptr, ptr %vfn87, align 8
  invoke void %29(ptr noundef nonnull align 8 dereferenceable(8) %call85)
          to label %invoke.cont88 unwind label %lpad

invoke.cont88:                                    ; preds = %invoke.cont84
  br label %if.end89

if.end89:                                         ; preds = %invoke.cont88, %invoke.cont78
  call void @_ZN14CProfileSampleD1Ev(ptr noundef nonnull align 1 dereferenceable(1) %__profile) #12
  ret void

eh.resume:                                        ; preds = %lpad
  %exn = load ptr, ptr %exn.slot, align 8
  %sel = load i32, ptr %ehselector.slot, align 4
  %lpad.val = insertvalue { ptr, i32 } poison, ptr %exn, 0
  %lpad.val90 = insertvalue { ptr, i32 } %lpad.val, i32 %sel, 1
  resume { ptr, i32 } %lpad.val90
}