; Function Attrs: mustprogress uwtable
define dso_local void @_ZN23btDiscreteDynamicsWorld14debugDrawWorldEv(ptr noundef nonnull align 8 dereferenceable(508) %this) unnamed_addr #0 align 2 personality ptr @__gxx_personality_v0 {
entry:
  %__profile = alloca %class.CProfileSample, align 1
  call void @_ZN14CProfileSampleC1EPKc(ptr noundef nonnull align 1 dereferenceable(1) %__profile, ptr noundef nonnull @.str)
  invoke void @_ZN16btCollisionWorld14debugDrawWorldEv(ptr noundef nonnull align 8 dereferenceable(121) %this)
          to label %invoke.cont unwind label %lpad.loopexit.split-lp.loopexit.split-lp

invoke.cont:                                      ; preds = %entry
  %vtable = load ptr, ptr %this, align 8
  %vfn = getelementptr inbounds i8, ptr %vtable, i64 40
  %0 = load ptr, ptr %vfn, align 8
  %call = invoke noundef ptr %0(ptr noundef nonnull align 8 dereferenceable(121) %this)
          to label %invoke.cont2 unwind label %lpad.loopexit.split-lp.loopexit.split-lp

invoke.cont2:                                     ; preds = %invoke.cont
  %tobool.not = icmp eq ptr %call, null
  br i1 %tobool.not, label %if.end27, label %if.then

if.then:                                          ; preds = %invoke.cont2
  %vtable3 = load ptr, ptr %this, align 8
  %vfn4 = getelementptr inbounds i8, ptr %vtable3, i64 40
  %1 = load ptr, ptr %vfn4, align 8
  %call6 = invoke noundef ptr %1(ptr noundef nonnull align 8 dereferenceable(121) %this)
          to label %invoke.cont5 unwind label %lpad.loopexit.split-lp.loopexit.split-lp

invoke.cont5:                                     ; preds = %if.then
  %vtable7 = load ptr, ptr %call6, align 8
  %vfn8 = getelementptr inbounds i8, ptr %vtable7, i64 112
  %2 = load ptr, ptr %vfn8, align 8
  %call10 = invoke noundef i32 %2(ptr noundef nonnull align 8 dereferenceable(8) %call6)
          to label %invoke.cont9 unwind label %lpad.loopexit.split-lp.loopexit.split-lp

invoke.cont9:                                     ; preds = %invoke.cont5
  %and = and i32 %call10, 6144
  %tobool11.not.not = icmp eq i32 %and, 0
  br i1 %tobool11.not.not, label %if.end27, label %if.then15

lpad.loopexit:                                    ; preds = %for.body65
  %lpad.loopexit5 = landingpad { ptr, i32 }
          cleanup
  br label %lpad

lpad.loopexit.split-lp.loopexit:                  ; preds = %invoke.cont22, %for.body
  %lpad.loopexit7 = landingpad { ptr, i32 }
          cleanup
  br label %lpad

lpad.loopexit.split-lp.loopexit.split-lp:         ; preds = %invoke.cont84, %if.then81, %if.end75, %invoke.cont53, %land.lhs.true50, %if.then43, %invoke.cont35, %land.lhs.true, %if.end27, %if.then15, %invoke.cont5, %if.then, %invoke.cont, %entry
  %lpad.loopexit.split-lp8 = landingpad { ptr, i32 }
          cleanup
  br label %lpad

lpad:                                             ; preds = %lpad.loopexit.split-lp.loopexit, %lpad.loopexit.split-lp.loopexit.split-lp, %lpad.loopexit
  %lpad.phi = phi { ptr, i32 } [ %lpad.loopexit5, %lpad.loopexit ], [ %lpad.loopexit7, %lpad.loopexit.split-lp.loopexit ], [ %lpad.loopexit.split-lp8, %lpad.loopexit.split-lp.loopexit.split-lp ]
  call void @_ZN14CProfileSampleD1Ev(ptr noundef nonnull align 1 dereferenceable(1) %__profile) #18
  resume { ptr, i32 } %lpad.phi

if.then15:                                        ; preds = %invoke.cont9
  %vtable16 = load ptr, ptr %this, align 8
  %vfn17 = getelementptr inbounds i8, ptr %vtable16, i64 216
  %3 = load ptr, ptr %vfn17, align 8
  %call19 = invoke noundef i32 %3(ptr noundef nonnull align 8 dereferenceable(508) %this)
          to label %for.cond unwind label %lpad.loopexit.split-lp.loopexit.split-lp

for.cond:                                         ; preds = %if.then15, %invoke.cont22
  %i.0.in = phi i32 [ %i.0, %invoke.cont22 ], [ %call19, %if.then15 ]
  %i.0 = add nsw i32 %i.0.in, -1
  %cmp = icmp sgt i32 %i.0.in, 0
  br i1 %cmp, label %for.body, label %if.end27

for.body:                                         ; preds = %for.cond
  %vtable20 = load ptr, ptr %this, align 8
  %vfn21 = getelementptr inbounds i8, ptr %vtable20, i64 224
  %4 = load ptr, ptr %vfn21, align 8
  %call23 = invoke noundef ptr %4(ptr noundef nonnull align 8 dereferenceable(508) %this, i32 noundef %i.0)
          to label %invoke.cont22 unwind label %lpad.loopexit.split-lp.loopexit

invoke.cont22:                                    ; preds = %for.body
  %vtable24 = load ptr, ptr %this, align 8
  %vfn25 = getelementptr inbounds i8, ptr %vtable24, i64 352
  %5 = load ptr, ptr %vfn25, align 8
  invoke void %5(ptr noundef nonnull align 8 dereferenceable(508) %this, ptr noundef %call23)
          to label %for.cond unwind label %lpad.loopexit.split-lp.loopexit, !llvm.loop !7

if.end27:                                         ; preds = %for.cond, %invoke.cont2, %invoke.cont9
  %vtable28 = load ptr, ptr %this, align 8
  %vfn29 = getelementptr inbounds i8, ptr %vtable28, i64 40
  %6 = load ptr, ptr %vfn29, align 8
  %call31 = invoke noundef ptr %6(ptr noundef nonnull align 8 dereferenceable(121) %this)
          to label %invoke.cont30 unwind label %lpad.loopexit.split-lp.loopexit.split-lp

invoke.cont30:                                    ; preds = %if.end27
  %tobool32.not = icmp eq ptr %call31, null
  br i1 %tobool32.not, label %if.end75, label %land.lhs.true

land.lhs.true:                                    ; preds = %invoke.cont30
  %vtable33 = load ptr, ptr %this, align 8
  %vfn34 = getelementptr inbounds i8, ptr %vtable33, i64 40
  %7 = load ptr, ptr %vfn34, align 8
  %call36 = invoke noundef ptr %7(ptr noundef nonnull align 8 dereferenceable(121) %this)
          to label %invoke.cont35 unwind label %lpad.loopexit.split-lp.loopexit.split-lp

invoke.cont35:                                    ; preds = %land.lhs.true
  %vtable37 = load ptr, ptr %call36, align 8
  %vfn38 = getelementptr inbounds i8, ptr %vtable37, i64 112
  %8 = load ptr, ptr %vfn38, align 8
  %call40 = invoke noundef i32 %8(ptr noundef nonnull align 8 dereferenceable(8) %call36)
          to label %invoke.cont39 unwind label %lpad.loopexit.split-lp.loopexit.split-lp

invoke.cont39:                                    ; preds = %invoke.cont35
  %and41 = and i32 %call40, 16387
  %tobool42.not = icmp eq i32 %and41, 0
  br i1 %tobool42.not, label %if.end75, label %if.then43

if.then43:                                        ; preds = %invoke.cont39
  %vtable45 = load ptr, ptr %this, align 8
  %vfn46 = getelementptr inbounds i8, ptr %vtable45, i64 40
  %9 = load ptr, ptr %vfn46, align 8
  %call48 = invoke noundef ptr %9(ptr noundef nonnull align 8 dereferenceable(121) %this)
          to label %invoke.cont47 unwind label %lpad.loopexit.split-lp.loopexit.split-lp

invoke.cont47:                                    ; preds = %if.then43
  %tobool49.not = icmp eq ptr %call48, null
  br i1 %tobool49.not, label %if.end75, label %land.lhs.true50

land.lhs.true50:                                  ; preds = %invoke.cont47
  %vtable51 = load ptr, ptr %this, align 8
  %vfn52 = getelementptr inbounds i8, ptr %vtable51, i64 40
  %10 = load ptr, ptr %vfn52, align 8
  %call54 = invoke noundef ptr %10(ptr noundef nonnull align 8 dereferenceable(121) %this)
          to label %invoke.cont53 unwind label %lpad.loopexit.split-lp.loopexit.split-lp

invoke.cont53:                                    ; preds = %land.lhs.true50
  %vtable55 = load ptr, ptr %call54, align 8
  %vfn56 = getelementptr inbounds i8, ptr %vtable55, i64 112
  %11 = load ptr, ptr %vfn56, align 8
  %call58 = invoke noundef i32 %11(ptr noundef nonnull align 8 dereferenceable(8) %call54)
          to label %invoke.cont57 unwind label %lpad.loopexit.split-lp.loopexit.split-lp

invoke.cont57:                                    ; preds = %invoke.cont53
  %tobool59.not = icmp eq i32 %call58, 0
  br i1 %tobool59.not, label %if.end75, label %for.cond61.preheader

for.cond61.preheader:                             ; preds = %invoke.cont57
  %m_size.i = getelementptr inbounds i8, ptr %this, i64 436
  %12 = load i32, ptr %m_size.i, align 4
  %cmp6410 = icmp sgt i32 %12, 0
  br i1 %cmp6410, label %for.body65.lr.ph, label %if.end75

for.body65.lr.ph:                                 ; preds = %for.cond61.preheader
  %m_data.i = getelementptr inbounds i8, ptr %this, i64 448
  %m_debugDrawer = getelementptr inbounds i8, ptr %this, i64 112
  br label %for.body65

for.body65:                                       ; preds = %for.body65.lr.ph, %for.inc72
  %indvars.iv = phi i64 [ 0, %for.body65.lr.ph ], [ %indvars.iv.next, %for.inc72 ]
  %13 = load ptr, ptr %m_data.i, align 8
  %arrayidx.i = getelementptr inbounds ptr, ptr %13, i64 %indvars.iv
  %14 = load ptr, ptr %arrayidx.i, align 8
  %15 = load ptr, ptr %m_debugDrawer, align 8
  %vtable69 = load ptr, ptr %14, align 8
  %vfn70 = getelementptr inbounds i8, ptr %vtable69, i64 24
  %16 = load ptr, ptr %vfn70, align 8
  invoke void %16(ptr noundef nonnull align 8 dereferenceable(8) %14, ptr noundef %15)
          to label %for.inc72 unwind label %lpad.loopexit

for.inc72:                                        ; preds = %for.body65
  %indvars.iv.next = add nuw nsw i64 %indvars.iv, 1
  %17 = load i32, ptr %m_size.i, align 4
  %18 = sext i32 %17 to i64
  %cmp64 = icmp slt i64 %indvars.iv.next, %18
  br i1 %cmp64, label %for.body65, label %if.end75, !llvm.loop !8

if.end75:                                         ; preds = %for.inc72, %for.cond61.preheader, %invoke.cont47, %invoke.cont57, %invoke.cont39, %invoke.cont30
  %vtable76 = load ptr, ptr %this, align 8
  %vfn77 = getelementptr inbounds i8, ptr %vtable76, i64 40
  %19 = load ptr, ptr %vfn77, align 8
  %call79 = invoke noundef ptr %19(ptr noundef nonnull align 8 dereferenceable(121) %this)
          to label %invoke.cont78 unwind label %lpad.loopexit.split-lp.loopexit.split-lp

invoke.cont78:                                    ; preds = %if.end75
  %tobool80.not = icmp eq ptr %call79, null
  br i1 %tobool80.not, label %if.end89, label %if.then81

if.then81:                                        ; preds = %invoke.cont78
  %vtable82 = load ptr, ptr %this, align 8
  %vfn83 = getelementptr inbounds i8, ptr %vtable82, i64 40
  %20 = load ptr, ptr %vfn83, align 8
  %call85 = invoke noundef ptr %20(ptr noundef nonnull align 8 dereferenceable(121) %this)
          to label %invoke.cont84 unwind label %lpad.loopexit.split-lp.loopexit.split-lp

invoke.cont84:                                    ; preds = %if.then81
  %vtable86 = load ptr, ptr %call85, align 8
  %vfn87 = getelementptr inbounds i8, ptr %vtable86, i64 208
  %21 = load ptr, ptr %vfn87, align 8
  invoke void %21(ptr noundef nonnull align 8 dereferenceable(8) %call85)
          to label %if.end89 unwind label %lpad.loopexit.split-lp.loopexit.split-lp

if.end89:                                         ; preds = %invoke.cont84, %invoke.cont78
  call void @_ZN14CProfileSampleD1Ev(ptr noundef nonnull align 1 dereferenceable(1) %__profile) #18
  ret void
}